; Function Attrs: mustprogress nofree norecurse nosync nounwind memory(readwrite, inaccessiblemem: none) uwtable
define dso_local noundef nonnull align 8 dereferenceable(12) ptr @_ZN4llvm5APIntmIERKS0_(ptr noundef nonnull returned align 8 dereferenceable(12) %0, ptr noundef nonnull readonly align 8 captures(none) dereferenceable(12) %1) local_unnamed_addr #4 align 2 {
  %3 = getelementptr inbounds nuw i8, ptr %0, i64 8
  %4 = load i32, ptr %3, align 8
  %5 = icmp ult i32 %4, 65
  br i1 %5, label %_ZN4llvm5APInt10tcSubtractEPmPKmmj.exit.thread, label %.lr.ph.preheader.i

_ZN4llvm5APInt10tcSubtractEPmPKmmj.exit.thread:   ; preds = %2
  %6 = load i64, ptr %1, align 8
  %7 = load i64, ptr %0, align 8
  %8 = sub i64 %7, %6
  store i64 %8, ptr %0, align 8
  %9 = add nuw nsw i32 %4, 63
  %10 = and i32 %9, 63
  %11 = xor i32 %10, 63
  %12 = zext nneg i32 %11 to i64
  %13 = lshr i64 -1, %12
  br label %37

.lr.ph.preheader.i:                               ; preds = %2
  %14 = load ptr, ptr %0, align 8
  %15 = load ptr, ptr %1, align 8
  %16 = zext i32 %4 to i64
  %17 = add nuw nsw i64 %16, 63
  %18 = lshr i64 %17, 6
  br label %.lr.ph.i

.lr.ph.i:                                         ; preds = %29, %.lr.ph.preheader.i
  %indvars.iv.i = phi i64 [ 0, %.lr.ph.preheader.i ], [ %indvars.iv.next.i, %29 ]
  %.022.i = phi i1 [ true, %.lr.ph.preheader.i ], [ %30, %29 ]
  %19 = getelementptr inbounds nuw i64, ptr %14, i64 %indvars.iv.i
  %20 = load i64, ptr %19, align 8
  %21 = getelementptr inbounds nuw i64, ptr %15, i64 %indvars.iv.i
  %22 = load i64, ptr %21, align 8
  br i1 %.022.i, label %26, label %23

23:                                               ; preds = %.lr.ph.i
  %.neg.i = xor i64 %22, -1
  %24 = add i64 %20, %.neg.i
  %25 = icmp uge i64 %24, %20
  br label %29

26:                                               ; preds = %.lr.ph.i
  %27 = sub i64 %20, %22
  %28 = icmp ugt i64 %22, %20
  br label %29

29:                                               ; preds = %26, %23
  %.sink.i = phi i64 [ %27, %26 ], [ %24, %23 ]
  %.1.in.i = phi i1 [ %28, %26 ], [ %25, %23 ]
  store i64 %.sink.i, ptr %19, align 8
  %indvars.iv.next.i = add nuw nsw i64 %indvars.iv.i, 1
  %exitcond.not.i = icmp eq i64 %indvars.iv.next.i, %18
  %30 = xor i1 %.1.in.i, true
  br i1 %exitcond.not.i, label %_ZN4llvm5APInt10tcSubtractEPmPKmmj.exit, label %.lr.ph.i, !llvm.loop !13

_ZN4llvm5APInt10tcSubtractEPmPKmmj.exit:          ; preds = %29
  %.pre = load i32, ptr %3, align 8
  %31 = add i32 %.pre, 63
  %32 = and i32 %31, 63
  %33 = xor i32 %32, 63
  %34 = zext nneg i32 %33 to i64
  %35 = lshr i64 -1, %34
  %36 = icmp ult i32 %.pre, 65
  br i1 %36, label %37, label %43

37:                                               ; preds = %_ZN4llvm5APInt10tcSubtractEPmPKmmj.exit.thread, %_ZN4llvm5APInt10tcSubtractEPmPKmmj.exit
  %38 = phi i64 [ %13, %_ZN4llvm5APInt10tcSubtractEPmPKmmj.exit.thread ], [ %35, %_ZN4llvm5APInt10tcSubtractEPmPKmmj.exit ]
  %39 = phi i32 [ %4, %_ZN4llvm5APInt10tcSubtractEPmPKmmj.exit.thread ], [ %.pre, %_ZN4llvm5APInt10tcSubtractEPmPKmmj.exit ]
  %40 = icmp eq i32 %39, 0
  %spec.store.select.i = select i1 %40, i64 0, i64 %38
  %41 = load i64, ptr %0, align 8
  %42 = and i64 %41, %spec.store.select.i
  store i64 %42, ptr %0, align 8
  br label %_ZN4llvm5APInt15clearUnusedBitsEv.exit

43:                                               ; preds = %_ZN4llvm5APInt10tcSubtractEPmPKmmj.exit
  %44 = load ptr, ptr %0, align 8
  %45 = zext i32 %.pre to i64
  %46 = add nuw nsw i64 %45, 63
  %47 = lshr i64 %46, 6
  %48 = add nuw nsw i64 %47, 4294967295
  %49 = and i64 %48, 4294967295
  %50 = getelementptr inbounds nuw i64, ptr %44, i64 %49
  %51 = load i64, ptr %50, align 8
  %52 = and i64 %51, %35
  store i64 %52, ptr %50, align 8
  br label %_ZN4llvm5APInt15clearUnusedBitsEv.exit

_ZN4llvm5APInt15clearUnusedBitsEv.exit:           ; preds = %37, %43
  ret ptr %0
}